; Function Attrs: nounwind sspstrong uwtable
define dso_local i64 @iov_to_buf_full(ptr noundef readonly captures(none) %iov, i32 noundef %iov_cnt, i64 noundef %offset, ptr noundef writeonly captures(none) %buf, i64 noundef %bytes) local_unnamed_addr #0 {
entry:
  %0 = or i64 %offset, %bytes
  %or.cond25 = icmp ne i64 %0, 0
  %cmp126 = icmp ne i32 %iov_cnt, 0
  %or.cond2227 = and i1 %or.cond25, %cmp126
  br i1 %or.cond2227, label %for.body.preheader, label %for.end

for.body.preheader:                               ; preds = %entry
  %1 = zext i32 %iov_cnt to i64
  br label %for.body

for.body:                                         ; preds = %for.body.preheader, %for.inc
  %indvars.iv = phi i64 [ 0, %for.body.preheader ], [ %indvars.iv.next, %for.inc ]
  %offset.addr.030 = phi i64 [ %offset, %for.body.preheader ], [ %offset.addr.1, %for.inc ]
  %done.029 = phi i64 [ 0, %for.body.preheader ], [ %done.1, %for.inc ]
  %arrayidx = getelementptr %struct.iovec, ptr %iov, i64 %indvars.iv
  %iov_len = getelementptr inbounds nuw i8, ptr %arrayidx, i64 8
  %2 = load i64, ptr %iov_len, align 8
  %cmp2 = icmp ult i64 %offset.addr.030, %2
  br i1 %cmp2, label %if.then, label %if.else

if.then:                                          ; preds = %for.body
  %sub = sub nuw i64 %2, %offset.addr.030
  %sub6 = sub i64 %bytes, %done.029
  %cond = tail call i64 @llvm.umin.i64(i64 %sub, i64 %sub6)
  %add.ptr = getelementptr i8, ptr %buf, i64 %done.029
  %3 = load ptr, ptr %arrayidx, align 8
  %add.ptr10 = getelementptr i8, ptr %3, i64 %offset.addr.030
  tail call void @llvm.memcpy.p0.p0.i64(ptr align 1 %add.ptr, ptr align 1 %add.ptr10, i64 %cond, i1 false)
  %add = add i64 %cond, %done.029
  br label %for.inc

if.else:                                          ; preds = %for.body
  %sub14 = sub nuw i64 %offset.addr.030, %2
  br label %for.inc

for.inc:                                          ; preds = %if.then, %if.else
  %done.1 = phi i64 [ %add, %if.then ], [ %done.029, %if.else ]
  %offset.addr.1 = phi i64 [ 0, %if.then ], [ %sub14, %if.else ]
  %indvars.iv.next = add nuw nsw i64 %indvars.iv, 1
  %tobool.not = icmp ne i64 %offset.addr.1, 0
  %cmp = icmp ult i64 %done.1, %bytes
  %or.cond = select i1 %tobool.not, i1 true, i1 %cmp
  %cmp1 = icmp samesign ult i64 %indvars.iv.next, %1
  %or.cond22 = select i1 %or.cond, i1 %cmp1, i1 false
  br i1 %or.cond22, label %for.body, label %for.end, !llvm.loop !7

for.end:                                          ; preds = %for.inc, %entry
  %done.0.lcssa = phi i64 [ 0, %entry ], [ %done.1, %for.inc ]
  %offset.addr.0.lcssa = phi i64 [ %offset, %entry ], [ %offset.addr.1, %for.inc ]
  %cmp15 = icmp eq i64 %offset.addr.0.lcssa, 0
  br i1 %cmp15, label %if.end18, label %if.else17

if.else17:                                        ; preds = %for.end
  tail call void @__assert_fail(ptr noundef nonnull @.str, ptr noundef nonnull @.str.1, i32 noundef 58, ptr noundef nonnull @__PRETTY_FUNCTION__.iov_to_buf_full) #17
  unreachable

if.end18:                                         ; preds = %for.end
  ret i64 %done.0.lcssa
}